; Function Attrs: mustprogress uwtable
define internal void @_ZNK2cv4impl12_GLOBAL__N_120CvtColorLoop_InvokerINS_3hal12cpu_baseline12_GLOBAL__N_18RGB2GrayIfEEEclERKNS_5RangeE(ptr nocapture noundef nonnull readonly align 8 dereferenceable(56) %0, ptr nocapture noundef nonnull readonly align 4 dereferenceable(8) %1) unnamed_addr #0 align 2 personality ptr @__gxx_personality_v0 {
  %3 = alloca %"class.cv::utils::trace::details::Region", align 8
  call void @_ZN2cv5utils5trace7details6RegionC1ERKNS3_21LocationStaticStorageE(ptr noundef nonnull align 8 dereferenceable(12) %3, ptr noundef nonnull align 8 dereferenceable(32) @_ZZNK2cv4impl12_GLOBAL__N_120CvtColorLoop_InvokerINS_3hal12cpu_baseline12_GLOBAL__N_18RGB2GrayIfEEEclERKNS_5RangeEE25__cv_trace_location_fn146)
  %4 = load i32, ptr %1, align 4
  %5 = getelementptr inbounds i8, ptr %0, i64 16
  %6 = getelementptr inbounds i8, ptr %0, i64 32
  %7 = getelementptr inbounds i8, ptr %1, i64 4
  %8 = load i32, ptr %7, align 4
  %9 = icmp slt i32 %4, %8
  br i1 %9, label %.lr.ph, label %._crit_edge

.lr.ph:                                           ; preds = %2
  %10 = getelementptr inbounds i8, ptr %0, i64 48
  %11 = getelementptr inbounds i8, ptr %0, i64 40
  %12 = load i32, ptr %11, align 8
  %13 = icmp sgt i32 %12, 0
  br i1 %13, label %.lr.ph.split.preheader, label %._crit_edge

.lr.ph.split.preheader:                           ; preds = %.lr.ph
  %14 = getelementptr inbounds i8, ptr %0, i64 24
  %15 = load ptr, ptr %14, align 8
  %16 = load i64, ptr %6, align 8
  %17 = sext i32 %4 to i64
  %18 = mul i64 %16, %17
  %19 = getelementptr inbounds i8, ptr %15, i64 %18
  %20 = getelementptr inbounds i8, ptr %0, i64 8
  %21 = load ptr, ptr %20, align 8
  %22 = load i64, ptr %5, align 8
  %23 = mul i64 %22, %17
  %24 = getelementptr inbounds i8, ptr %21, i64 %23
  br label %.lr.ph.split

.lr.ph.split:                                     ; preds = %.lr.ph.split.preheader, %_ZNK2cv3hal12cpu_baseline12_GLOBAL__N_18RGB2GrayIfEclEPKfPfi.exit
  %25 = phi i32 [ %51, %_ZNK2cv3hal12cpu_baseline12_GLOBAL__N_18RGB2GrayIfEclEPKfPfi.exit ], [ %8, %.lr.ph.split.preheader ]
  %26 = phi i64 [ %52, %_ZNK2cv3hal12cpu_baseline12_GLOBAL__N_18RGB2GrayIfEclEPKfPfi.exit ], [ %16, %.lr.ph.split.preheader ]
  %27 = phi i64 [ %53, %_ZNK2cv3hal12cpu_baseline12_GLOBAL__N_18RGB2GrayIfEclEPKfPfi.exit ], [ %22, %.lr.ph.split.preheader ]
  %.014 = phi i32 [ %54, %_ZNK2cv3hal12cpu_baseline12_GLOBAL__N_18RGB2GrayIfEclEPKfPfi.exit ], [ %4, %.lr.ph.split.preheader ]
  %.01013 = phi ptr [ %56, %_ZNK2cv3hal12cpu_baseline12_GLOBAL__N_18RGB2GrayIfEclEPKfPfi.exit ], [ %19, %.lr.ph.split.preheader ]
  %.01112 = phi ptr [ %55, %_ZNK2cv3hal12cpu_baseline12_GLOBAL__N_18RGB2GrayIfEclEPKfPfi.exit ], [ %24, %.lr.ph.split.preheader ]
  %28 = load ptr, ptr %10, align 8
  %29 = load i32, ptr %11, align 8
  %30 = getelementptr inbounds i8, ptr %28, i64 4
  %31 = load float, ptr %30, align 4
  %32 = getelementptr inbounds i8, ptr %28, i64 8
  %33 = load float, ptr %32, align 4
  %34 = getelementptr inbounds i8, ptr %28, i64 12
  %35 = load float, ptr %34, align 4
  %36 = icmp sgt i32 %29, 0
  br i1 %36, label %.lr.ph.i, label %_ZNK2cv3hal12cpu_baseline12_GLOBAL__N_18RGB2GrayIfEclEPKfPfi.exit

.lr.ph.i:                                         ; preds = %.lr.ph.split
  %37 = load i32, ptr %28, align 4
  %38 = sext i32 %37 to i64
  br label %39

39:                                               ; preds = %39, %.lr.ph.i
  %.017.i = phi ptr [ %.01112, %.lr.ph.i ], [ %49, %39 ]
  %.01316.i = phi ptr [ %.01013, %.lr.ph.i ], [ %50, %39 ]
  %.01415.i = phi i32 [ 0, %.lr.ph.i ], [ %48, %39 ]
  %40 = load float, ptr %.017.i, align 4
  %41 = getelementptr inbounds i8, ptr %.017.i, i64 4
  %42 = load float, ptr %41, align 4
  %43 = fmul float %33, %42
  %44 = call float @llvm.fmuladd.f32(float %40, float %31, float %43)
  %45 = getelementptr inbounds i8, ptr %.017.i, i64 8
  %46 = load float, ptr %45, align 4
  %47 = call float @llvm.fmuladd.f32(float %46, float %35, float %44)
  store float %47, ptr %.01316.i, align 4
  %48 = add nuw nsw i32 %.01415.i, 1
  %49 = getelementptr inbounds float, ptr %.017.i, i64 %38
  %50 = getelementptr inbounds i8, ptr %.01316.i, i64 4
  %exitcond.not.i = icmp eq i32 %48, %29
  br i1 %exitcond.not.i, label %_ZNK2cv3hal12cpu_baseline12_GLOBAL__N_18RGB2GrayIfEclEPKfPfi.exit.loopexit, label %39, !llvm.loop !70

_ZNK2cv3hal12cpu_baseline12_GLOBAL__N_18RGB2GrayIfEclEPKfPfi.exit.loopexit: ; preds = %39
  %.pre = load i64, ptr %5, align 8
  %.pre16 = load i64, ptr %6, align 8
  %.pre17 = load i32, ptr %7, align 4
  br label %_ZNK2cv3hal12cpu_baseline12_GLOBAL__N_18RGB2GrayIfEclEPKfPfi.exit

_ZNK2cv3hal12cpu_baseline12_GLOBAL__N_18RGB2GrayIfEclEPKfPfi.exit: ; preds = %_ZNK2cv3hal12cpu_baseline12_GLOBAL__N_18RGB2GrayIfEclEPKfPfi.exit.loopexit, %.lr.ph.split
  %51 = phi i32 [ %.pre17, %_ZNK2cv3hal12cpu_baseline12_GLOBAL__N_18RGB2GrayIfEclEPKfPfi.exit.loopexit ], [ %25, %.lr.ph.split ]
  %52 = phi i64 [ %.pre16, %_ZNK2cv3hal12cpu_baseline12_GLOBAL__N_18RGB2GrayIfEclEPKfPfi.exit.loopexit ], [ %26, %.lr.ph.split ]
  %53 = phi i64 [ %.pre, %_ZNK2cv3hal12cpu_baseline12_GLOBAL__N_18RGB2GrayIfEclEPKfPfi.exit.loopexit ], [ %27, %.lr.ph.split ]
  %54 = add nsw i32 %.014, 1
  %55 = getelementptr inbounds i8, ptr %.01112, i64 %53
  %56 = getelementptr inbounds i8, ptr %.01013, i64 %52
  %57 = icmp slt i32 %54, %51
  br i1 %57, label %.lr.ph.split, label %._crit_edge, !llvm.loop !71

._crit_edge:                                      ; preds = %_ZNK2cv3hal12cpu_baseline12_GLOBAL__N_18RGB2GrayIfEclEPKfPfi.exit, %.lr.ph, %2
  %58 = getelementptr inbounds i8, ptr %3, i64 8
  %59 = load i32, ptr %58, align 8
  %.not.i = icmp eq i32 %59, 0
  br i1 %.not.i, label %_ZN2cv5utils5trace7details6RegionD2Ev.exit, label %60

60:                                               ; preds = %._crit_edge
  invoke void @_ZN2cv5utils5trace7details6Region7destroyEv(ptr noundef nonnull align 8 dereferenceable(12) %3)
          to label %_ZN2cv5utils5trace7details6RegionD2Ev.exit unwind label %61

61:                                               ; preds = %60
  %62 = landingpad { ptr, i32 }
          catch ptr null
  %63 = extractvalue { ptr, i32 } %62, 0
  call void @__clang_call_terminate(ptr %63) #13
  unreachable

_ZN2cv5utils5trace7details6RegionD2Ev.exit:       ; preds = %._crit_edge, %60
  ret void
}